target datalayout = "e-m:e-p270:32:32-p271:32:32-p272:64:64-i64:64-i128:128-f80:128-n8:16:32:64-S128"
target triple = "x86_64-pc-linux-gnu"

%struct.SDL_DriverSwitch_Context = type <{ ptr, ptr, i8, i8, i8, i8, i32, i8, [3 x i8], i32, i32, i8, i8, [6 x i8], i8, [3 x i8], i32, i8, i8, %struct.SwitchCommonOutputPacket_t, [64 x i8], i8, [7 x i8], i64, i8, i8, [2 x i8], i32, i8, i8, i8, [5 x i8], i64, i64, i64, i32, [4 x i8], i64, i64, i8, %struct.SwitchInputOnlyControllerStatePacket_t, %struct.SwitchSimpleStatePacket_t, %struct.SwitchStatePacket_t, i8, [2 x %struct.StickCalibrationData], [2 x %struct.StickExtents], [2 x %struct.StickExtents], %struct.IMUScaleData, [4 x i8] }>
%struct.SwitchCommonOutputPacket_t = type { i8, i8, [2 x %struct.SwitchRumbleData_t] }
%struct.SwitchRumbleData_t = type { [4 x i8] }
%struct.SwitchInputOnlyControllerStatePacket_t = type { [2 x i8], i8, [2 x i8], [2 x i8] }
%struct.SwitchSimpleStatePacket_t = type <{ [2 x i8], i8, [2 x i16], [2 x i16] }>
%struct.SwitchStatePacket_t = type { %struct.SwitchControllerStatePacket_t, [3 x %struct.anon] }
%struct.SwitchControllerStatePacket_t = type { i8, i8, [3 x i8], [3 x i8], [3 x i8], i8 }
%struct.anon = type { i16, i16, i16, i16, i16, i16 }
%struct.StickCalibrationData = type { [2 x %struct.anon.0] }
%struct.anon.0 = type { i16, i16, i16 }
%struct.StickExtents = type { [2 x %struct.anon.1] }
%struct.anon.1 = type { i16, i16 }
%struct.IMUScaleData = type { float, float, float, float, float, float }
%struct.SDL_HIDAPI_Device = type { ptr, ptr, ptr, ptr, i16, i16, i16, ptr, %struct.SDL_GUID, i32, i32, i32, i32, i16, i16, i8, i32, i32, i32, ptr, ptr, ptr, ptr, %struct.SDL_AtomicInt, i32, ptr, i8, i8, i8, ptr, i32, ptr, ptr }
%struct.SDL_GUID = type { [16 x i8] }
%struct.SDL_AtomicInt = type { i32 }

; Function Attrs: nounwind uwtable
define internal zeroext i1 @SetInputMode(ptr noundef %0, i8 noundef zeroext %1) #0 {
  %3 = alloca i1, align 1
  %4 = alloca ptr, align 8
  %5 = alloca i8, align 1
  store ptr %0, ptr %4, align 8
  store i8 %1, ptr %5, align 1
  %6 = load i8, ptr %5, align 1
  %7 = zext i8 %6 to i32
  %8 = load ptr, ptr %4, align 8
  %9 = getelementptr inbounds nuw %struct.SDL_DriverSwitch_Context, ptr %8, i32 0, i32 12
  %10 = load i8, ptr %9, align 1
  %11 = zext i8 %10 to i32
  %12 = icmp eq i32 %7, %11
  br i1 %12, label %13, label %14

13:                                               ; preds = %2
  store i1 true, ptr %3, align 1
  br label %20

14:                                               ; preds = %2
  %15 = load i8, ptr %5, align 1
  %16 = load ptr, ptr %4, align 8
  %17 = getelementptr inbounds nuw %struct.SDL_DriverSwitch_Context, ptr %16, i32 0, i32 12
  store i8 %15, ptr %17, align 1
  %18 = load ptr, ptr %4, align 8
  %19 = call zeroext i1 @WriteSubcommand(ptr noundef %18, i32 noundef 3, ptr noundef %5, i8 noundef zeroext 1, ptr noundef null)
  store i1 %19, ptr %3, align 1
  br label %20

20:                                               ; preds = %14, %13
  %21 = load i1, ptr %3, align 1
  ret i1 %21
}

; Function Attrs: nounwind uwtable
define internal zeroext i8 @GetDefaultInputMode(ptr noundef %0) #0 {
  %2 = alloca ptr, align 8
  %3 = alloca i8, align 1
  store ptr %0, ptr %2, align 8
  call void @llvm.lifetime.start.p0(i64 1, ptr %3) #6
  %4 = load ptr, ptr %2, align 8
  %5 = getelementptr inbounds nuw %struct.SDL_DriverSwitch_Context, ptr %4, i32 0, i32 11
  %6 = load i8, ptr %5, align 4
  %7 = icmp ne i8 %6, 0
  br i1 %7, label %8, label %12

8:                                                ; preds = %1
  %9 = load ptr, ptr %2, align 8
  %10 = getelementptr inbounds nuw %struct.SDL_DriverSwitch_Context, ptr %9, i32 0, i32 11
  %11 = load i8, ptr %10, align 4
  store i8 %11, ptr %3, align 1
  br label %22

12:                                               ; preds = %1
  %13 = load ptr, ptr %2, align 8
  %14 = getelementptr inbounds nuw %struct.SDL_DriverSwitch_Context, ptr %13, i32 0, i32 0
  %15 = load ptr, ptr %14, align 8
  %16 = getelementptr inbounds nuw %struct.SDL_HIDAPI_Device, ptr %15, i32 0, i32 15
  %17 = load i8, ptr %16, align 4, !range !3, !noundef !4
  %18 = trunc i8 %17 to i1
  br i1 %18, label %19, label %20

19:                                               ; preds = %12
  store i8 63, ptr %3, align 1
  br label %21

20:                                               ; preds = %12
  store i8 48, ptr %3, align 1
  br label %21

21:                                               ; preds = %20, %19
  br label %22

22:                                               ; preds = %21, %8
  %23 = load ptr, ptr %2, align 8
  %24 = getelementptr inbounds nuw %struct.SDL_DriverSwitch_Context, ptr %23, i32 0, i32 16
  %25 = load i32, ptr %24, align 8
  switch i32 %25, label %59 [
    i32 0, label %26
    i32 1, label %27
    i32 2, label %33
  ]

26:                                               ; preds = %22
  store i8 63, ptr %3, align 1
  br label %59

27:                                               ; preds = %22
  %28 = load i8, ptr %3, align 1
  %29 = zext i8 %28 to i32
  %30 = icmp eq i32 %29, 63
  br i1 %30, label %31, label %32

31:                                               ; preds = %27
  store i8 48, ptr %3, align 1
  br label %32

32:                                               ; preds = %31, %27
  br label %59

33:                                               ; preds = %22
  %34 = load ptr, ptr %2, align 8
  %35 = getelementptr inbounds nuw %struct.SDL_DriverSwitch_Context, ptr %34, i32 0, i32 0
  %36 = load ptr, ptr %35, align 8
  %37 = getelementptr inbounds nuw %struct.SDL_HIDAPI_Device, ptr %36, i32 0, i32 4
  %38 = load i16, ptr %37, align 8
  %39 = zext i16 %38 to i32
  %40 = icmp eq i32 %39, 1406
  br i1 %40, label %41, label %58

41:                                               ; preds = %33
  %42 = load ptr, ptr %2, align 8
  %43 = getelementptr inbounds nuw %struct.SDL_DriverSwitch_Context, ptr %42, i32 0, i32 0
  %44 = load ptr, ptr %43, align 8
  %45 = getelementptr inbounds nuw %struct.SDL_HIDAPI_Device, ptr %44, i32 0, i32 5
  %46 = load i16, ptr %45, align 2
  %47 = zext i16 %46 to i32
  %48 = icmp eq i32 %47, 8198
  br i1 %48, label %57, label %49

49:                                               ; preds = %41
  %50 = load ptr, ptr %2, align 8
  %51 = getelementptr inbounds nuw %struct.SDL_DriverSwitch_Context, ptr %50, i32 0, i32 0
  %52 = load ptr, ptr %51, align 8
  %53 = getelementptr inbounds nuw %struct.SDL_HIDAPI_Device, ptr %52, i32 0, i32 5
  %54 = load i16, ptr %53, align 2
  %55 = zext i16 %54 to i32
  %56 = icmp eq i32 %55, 8199
  br i1 %56, label %57, label %58

57:                                               ; preds = %49, %41
  store i8 48, ptr %3, align 1
  br label %58

58:                                               ; preds = %57, %49, %33
  br label %59

59:                                               ; preds = %22, %58, %32, %26
  %60 = load i8, ptr %3, align 1
  %61 = zext i8 %60 to i32
  %62 = icmp eq i32 %61, 63
  br i1 %62, label %63, label %71

63:                                               ; preds = %59
  %64 = load ptr, ptr %2, align 8
  %65 = getelementptr inbounds nuw %struct.SDL_DriverSwitch_Context, ptr %64, i32 0, i32 0
  %66 = load ptr, ptr %65, align 8
  %67 = getelementptr inbounds nuw %struct.SDL_HIDAPI_Device, ptr %66, i32 0, i32 15
  %68 = load i8, ptr %67, align 4, !range !3, !noundef !4
  %69 = trunc i8 %68 to i1
  br i1 %69, label %71, label %70

70:                                               ; preds = %63
  store i8 48, ptr %3, align 1
  br label %71

71:                                               ; preds = %70, %63, %59
  %72 = load i8, ptr %3, align 1
  call void @llvm.lifetime.end.p0(i64 1, ptr %3) #6
  ret i8 %72
}

; Function Attrs: nounwind uwtable
define internal zeroext i8 @GetSensorInputMode(ptr noundef %0) #0 {
  %2 = alloca ptr, align 8
  %3 = alloca i8, align 1
  store ptr %0, ptr %2, align 8
  call void @llvm.lifetime.start.p0(i64 1, ptr %3) #6
  %4 = load ptr, ptr %2, align 8
  %5 = getelementptr inbounds nuw %struct.SDL_DriverSwitch_Context, ptr %4, i32 0, i32 11
  %6 = load i8, ptr %5, align 4
  %7 = icmp ne i8 %6, 0
  br i1 %7, label %8, label %14

8:                                                ; preds = %1
  %9 = load ptr, ptr %2, align 8
  %10 = getelementptr inbounds nuw %struct.SDL_DriverSwitch_Context, ptr %9, i32 0, i32 11
  %11 = load i8, ptr %10, align 4
  %12 = zext i8 %11 to i32
  %13 = icmp eq i32 %12, 63
  br i1 %13, label %14, label %15

14:                                               ; preds = %8, %1
  store i8 48, ptr %3, align 1
  br label %19

15:                                               ; preds = %8
  %16 = load ptr, ptr %2, align 8
  %17 = getelementptr inbounds nuw %struct.SDL_DriverSwitch_Context, ptr %16, i32 0, i32 11
  %18 = load i8, ptr %17, align 4
  store i8 %18, ptr %3, align 1
  br label %19

19:                                               ; preds = %15, %14
  %20 = load i8, ptr %3, align 1
  call void @llvm.lifetime.end.p0(i64 1, ptr %3) #6
  ret i8 %20
}

; Function Attrs: nounwind uwtable
define internal void @UpdateInputMode(ptr noundef %0) #0 {
  %2 = alloca ptr, align 8
  %3 = alloca i8, align 1
  store ptr %0, ptr %2, align 8
  call void @llvm.lifetime.start.p0(i64 1, ptr %3) #6
  %4 = load ptr, ptr %2, align 8
  %5 = getelementptr inbounds nuw %struct.SDL_DriverSwitch_Context, ptr %4, i32 0, i32 29
  %6 = load i8, ptr %5, align 1, !range !3, !noundef !4
  %7 = trunc i8 %6 to i1
  br i1 %7, label %8, label %11

8:                                                ; preds = %1
  %9 = load ptr, ptr %2, align 8
  %10 = call zeroext i8 @GetSensorInputMode(ptr noundef %9)
  store i8 %10, ptr %3, align 1
  br label %14

11:                                               ; preds = %1
  %12 = load ptr, ptr %2, align 8
  %13 = call zeroext i8 @GetDefaultInputMode(ptr noundef %12)
  store i8 %13, ptr %3, align 1
  br label %14

14:                                               ; preds = %11, %8
  %15 = load ptr, ptr %2, align 8
  %16 = load i8, ptr %3, align 1
  %17 = call zeroext i1 @SetInputMode(ptr noundef %15, i8 noundef zeroext %16)
  call void @llvm.lifetime.end.p0(i64 1, ptr %3) #6
  ret void
}

; Function Attrs: nounwind uwtable
define internal void @SetEnhancedReportHint(ptr noundef %0, i32 noundef %1) #0 {
  %3 = alloca ptr, align 8
  %4 = alloca i32, align 4
  store ptr %0, ptr %3, align 8
  store i32 %1, ptr %4, align 4
  %5 = load i32, ptr %4, align 4
  %6 = load ptr, ptr %3, align 8
  %7 = getelementptr inbounds nuw %struct.SDL_DriverSwitch_Context, ptr %6, i32 0, i32 16
  store i32 %5, ptr %7, align 8
  %8 = load i32, ptr %4, align 4
  switch i32 %8, label %18 [
    i32 0, label %9
    i32 1, label %12
    i32 2, label %16
  ]

9:                                                ; preds = %2
  %10 = load ptr, ptr %3, align 8
  %11 = getelementptr inbounds nuw %struct.SDL_DriverSwitch_Context, ptr %10, i32 0, i32 17
  store i8 0, ptr %11, align 4
  br label %18

12:                                               ; preds = %2
  %13 = load ptr, ptr %3, align 8
  call void @SetEnhancedModeAvailable(ptr noundef %13)
  %14 = load ptr, ptr %3, align 8
  %15 = getelementptr inbounds nuw %struct.SDL_DriverSwitch_Context, ptr %14, i32 0, i32 17
  store i8 1, ptr %15, align 4
  br label %18

16:                                               ; preds = %2
  %17 = load ptr, ptr %3, align 8
  call void @SetEnhancedModeAvailable(ptr noundef %17)
  br label %18

18:                                               ; preds = %2, %16, %12, %9
  %19 = load ptr, ptr %3, align 8
  call void @UpdateInputMode(ptr noundef %19)
  ret void
}