; Function Attrs: nounwind uwtable
define internal fastcc void @SetEnhancedReportHint(ptr noundef initializes((48, 52)) %0, i32 noundef range(i32 0, 3) %1) unnamed_addr #0 {
  %3 = alloca i8, align 1
  %4 = getelementptr inbounds nuw i8, ptr %0, i64 48
  store i32 %1, ptr %4, align 8
  switch i32 %1, label %default.unreachable7 [
    i32 0, label %5
    i32 1, label %7
    i32 2, label %9
  ]

5:                                                ; preds = %2
  %6 = getelementptr inbounds nuw i8, ptr %0, i64 52
  store i8 0, ptr %6, align 4
  br label %10

7:                                                ; preds = %2
  tail call fastcc void @SetEnhancedModeAvailable(ptr noundef nonnull %0)
  %8 = getelementptr inbounds nuw i8, ptr %0, i64 52
  store i8 1, ptr %8, align 4
  br label %10

9:                                                ; preds = %2
  tail call fastcc void @SetEnhancedModeAvailable(ptr noundef nonnull %0)
  br label %10

default.unreachable7:                             ; preds = %2
  unreachable

10:                                               ; preds = %9, %7, %5
  %11 = getelementptr inbounds nuw i8, ptr %0, i64 153
  %12 = load i8, ptr %11, align 1, !range !3, !noundef !4
  %13 = trunc nuw i8 %12 to i1
  %14 = getelementptr i8, ptr %0, i64 36
  %.val.i = load i8, ptr %14, align 4
  br i1 %13, label %15, label %17

15:                                               ; preds = %10
  switch i8 %.val.i, label %16 [
    i8 0, label %GetSensorInputMode.exit.i
    i8 63, label %GetSensorInputMode.exit.i
  ]

16:                                               ; preds = %15
  br label %GetSensorInputMode.exit.i

17:                                               ; preds = %10
  %.not.i.i = icmp eq i8 %.val.i, 0
  br i1 %.not.i.i, label %18, label %23

18:                                               ; preds = %17
  %19 = load ptr, ptr %0, align 8
  %20 = getelementptr inbounds nuw i8, ptr %19, i64 84
  %21 = load i8, ptr %20, align 4, !range !3, !noundef !4
  %22 = trunc nuw i8 %21 to i1
  %..i.i = select i1 %22, i8 63, i8 48
  br label %23

23:                                               ; preds = %18, %17
  %.0.i4.i = phi i8 [ %.val.i, %17 ], [ %..i.i, %18 ]
  %24 = load i32, ptr %4, align 8
  switch i32 %24, label %35 [
    i32 0, label %.thread15.i.i
    i32 1, label %25
    i32 2, label %26
  ]

25:                                               ; preds = %23
  %cond.i.i = icmp eq i8 %.0.i4.i, 63
  br i1 %cond.i.i, label %GetSensorInputMode.exit.i, label %.thread.fold.split.i.i

26:                                               ; preds = %23
  %27 = load ptr, ptr %0, align 8
  %28 = getelementptr inbounds nuw i8, ptr %27, i64 32
  %29 = load i16, ptr %28, align 8
  %30 = icmp eq i16 %29, 1406
  br i1 %30, label %31, label %35

31:                                               ; preds = %26
  %32 = getelementptr inbounds nuw i8, ptr %27, i64 34
  %33 = load i16, ptr %32, align 2
  %34 = and i16 %33, -2
  %switch.i.i = icmp eq i16 %34, 8198
  br i1 %switch.i.i, label %GetSensorInputMode.exit.i, label %35

35:                                               ; preds = %31, %26, %23
  %36 = icmp eq i8 %.0.i4.i, 63
  br i1 %36, label %.thread15.i.i, label %.thread.fold.split.i.i

.thread15.i.i:                                    ; preds = %35, %23
  %37 = load ptr, ptr %0, align 8
  %38 = getelementptr inbounds nuw i8, ptr %37, i64 84
  %39 = load i8, ptr %38, align 4, !range !3, !noundef !4
  %40 = trunc nuw i8 %39 to i1
  %spec.select.i.i = select i1 %40, i8 63, i8 48
  br label %GetSensorInputMode.exit.i

.thread.fold.split.i.i:                           ; preds = %35, %25
  br label %GetSensorInputMode.exit.i

GetSensorInputMode.exit.i:                        ; preds = %.thread.fold.split.i.i, %.thread15.i.i, %31, %25, %16, %15, %15
  %.0.i = phi i8 [ %.val.i, %16 ], [ 48, %15 ], [ 48, %15 ], [ %spec.select.i.i, %.thread15.i.i ], [ 48, %25 ], [ 48, %31 ], [ %.0.i4.i, %.thread.fold.split.i.i ]
  call void @llvm.lifetime.start.p0(i64 1, ptr nonnull %3)
  store i8 %.0.i, ptr %3, align 1
  %41 = getelementptr inbounds nuw i8, ptr %0, i64 37
  %42 = load i8, ptr %41, align 1
  %43 = icmp eq i8 %.0.i, %42
  br i1 %43, label %UpdateInputMode.exit, label %44

44:                                               ; preds = %GetSensorInputMode.exit.i
  store i8 %.0.i, ptr %41, align 1
  %45 = call fastcc zeroext i1 @WriteSubcommand(ptr noundef nonnull %0, i32 noundef 3, ptr noundef nonnull %3, i8 noundef zeroext 1, ptr noundef null)
  br label %UpdateInputMode.exit

UpdateInputMode.exit:                             ; preds = %GetSensorInputMode.exit.i, %44
  call void @llvm.lifetime.end.p0(i64 1, ptr nonnull %3)
  ret void
}